; ModuleID = '21/1119.c'
source_filename = "21/1119.c"
target datalayout = "e-m:e-p270:32:32-p271:32:32-p272:64:64-i64:64-f80:128-n8:16:32:64-S128"
target triple = "x86_64-pc-linux-gnu"

@.str = private unnamed_addr constant [3 x i8] c"%d\00", align 1
@.str.1 = private unnamed_addr constant [6 x i8] c"%d,%d\00", align 1

; Function Attrs: noinline nounwind uwtable
define dso_local i32 @main() #0 {
  %1 = alloca i32, align 4
  %2 = alloca [300 x i32], align 16
  %3 = alloca [300 x i32], align 16
  %4 = alloca i32, align 4
  %5 = alloca i32, align 4
  %6 = alloca i32, align 4
  %7 = alloca i32, align 4
  %8 = alloca float, align 4
  %9 = alloca float, align 4
  %10 = alloca float, align 4
  %11 = alloca float, align 4
  store i32 0, i32* %1, align 4
  %12 = bitcast [300 x i32]* %2 to i8*
  call void @llvm.memset.p0i8.i64(i8* align 16 %12, i8 0, i64 1200, i1 false)
  %13 = bitcast [300 x i32]* %3 to i8*
  call void @llvm.memset.p0i8.i64(i8* align 16 %13, i8 0, i64 1200, i1 false)
  store float 0.000000e+00, float* %8, align 4
  %14 = call i32 (i8*, ...) @__isoc99_scanf(i8* getelementptr inbounds ([3 x i8], [3 x i8]* @.str, i64 0, i64 0), i32* %6)
  store i32 0, i32* %4, align 4
  br label %15

15:                                               ; preds = %24, %0
  %16 = load i32, i32* %4, align 4
  %17 = load i32, i32* %6, align 4
  %18 = icmp slt i32 %16, %17
  br i1 %18, label %19, label %27

19:                                               ; preds = %15
  %20 = load i32, i32* %4, align 4
  %21 = sext i32 %20 to i64
  %22 = getelementptr inbounds [300 x i32], [300 x i32]* %2, i64 0, i64 %21
  %23 = call i32 (i8*, ...) @__isoc99_scanf(i8* getelementptr inbounds ([3 x i8], [3 x i8]* @.str, i64 0, i64 0), i32* %22)
  br label %24

24:                                               ; preds = %19
  %25 = load i32, i32* %4, align 4
  %26 = add nsw i32 %25, 1
  store i32 %26, i32* %4, align 4
  br label %15

27:                                               ; preds = %15
  store i32 0, i32* %4, align 4
  br label %28

28:                                               ; preds = %69, %27
  %29 = load i32, i32* %4, align 4
  %30 = load i32, i32* %6, align 4
  %31 = icmp slt i32 %29, %30
  br i1 %31, label %32, label %72

32:                                               ; preds = %28
  %33 = load float, float* %8, align 4
  %34 = load i32, i32* %4, align 4
  %35 = sext i32 %34 to i64
  %36 = getelementptr inbounds [300 x i32], [300 x i32]* %2, i64 0, i64 %35
  %37 = load i32, i32* %36, align 4
  %38 = sitofp i32 %37 to float
  %39 = fadd float %33, %38
  store float %39, float* %8, align 4
  store i32 0, i32* %7, align 4
  store i32 0, i32* %5, align 4
  br label %40

40:                                               ; preds = %58, %32
  %41 = load i32, i32* %5, align 4
  %42 = load i32, i32* %6, align 4
  %43 = icmp slt i32 %41, %42
  br i1 %43, label %44, label %61

44:                                               ; preds = %40
  %45 = load i32, i32* %4, align 4
  %46 = sext i32 %45 to i64
  %47 = getelementptr inbounds [300 x i32], [300 x i32]* %2, i64 0, i64 %46
  %48 = load i32, i32* %47, align 4
  %49 = load i32, i32* %5, align 4
  %50 = sext i32 %49 to i64
  %51 = getelementptr inbounds [300 x i32], [300 x i32]* %2, i64 0, i64 %50
  %52 = load i32, i32* %51, align 4
  %53 = icmp sgt i32 %48, %52
  br i1 %53, label %54, label %57

54:                                               ; preds = %44
  %55 = load i32, i32* %7, align 4
  %56 = add nsw i32 %55, 1
  store i32 %56, i32* %7, align 4
  br label %57

57:                                               ; preds = %54, %44
  br label %58

58:                                               ; preds = %57
  %59 = load i32, i32* %5, align 4
  %60 = add nsw i32 %59, 1
  store i32 %60, i32* %5, align 4
  br label %40

61:                                               ; preds = %40
  %62 = load i32, i32* %4, align 4
  %63 = sext i32 %62 to i64
  %64 = getelementptr inbounds [300 x i32], [300 x i32]* %2, i64 0, i64 %63
  %65 = load i32, i32* %64, align 4
  %66 = load i32, i32* %7, align 4
  %67 = sext i32 %66 to i64
  %68 = getelementptr inbounds [300 x i32], [300 x i32]* %3, i64 0, i64 %67
  store i32 %65, i32* %68, align 4
  br label %69

69:                                               ; preds = %61
  %70 = load i32, i32* %4, align 4
  %71 = add nsw i32 %70, 1
  store i32 %71, i32* %4, align 4
  br label %28

72:                                               ; preds = %28
  %73 = load float, float* %8, align 4
  %74 = load i32, i32* %6, align 4
  %75 = sitofp i32 %74 to float
  %76 = fdiv float %73, %75
  store float %76, float* %9, align 4
  %77 = load float, float* %9, align 4
  %78 = getelementptr inbounds [300 x i32], [300 x i32]* %3, i64 0, i64 0
  %79 = load i32, i32* %78, align 16
  %80 = sitofp i32 %79 to float
  %81 = fsub float %77, %80
  store float %81, float* %10, align 4
  %82 = load i32, i32* %6, align 4
  %83 = sub nsw i32 %82, 1
  %84 = sext i32 %83 to i64
  %85 = getelementptr inbounds [300 x i32], [300 x i32]* %3, i64 0, i64 %84
  %86 = load i32, i32* %85, align 4
  %87 = sitofp i32 %86 to float
  %88 = load float, float* %9, align 4
  %89 = fsub float %87, %88
  store float %89, float* %11, align 4
  %90 = load float, float* %10, align 4
  %91 = load float, float* %11, align 4
  %92 = fcmp oeq float %90, %91
  br i1 %92, label %93, label %102

93:                                               ; preds = %72
  %94 = getelementptr inbounds [300 x i32], [300 x i32]* %3, i64 0, i64 0
  %95 = load i32, i32* %94, align 16
  %96 = load i32, i32* %6, align 4
  %97 = sub nsw i32 %96, 1
  %98 = sext i32 %97 to i64
  %99 = getelementptr inbounds [300 x i32], [300 x i32]* %3, i64 0, i64 %98
  %100 = load i32, i32* %99, align 4
  %101 = call i32 (i8*, ...) @printf(i8* getelementptr inbounds ([6 x i8], [6 x i8]* @.str.1, i64 0, i64 0), i32 %95, i32 %100)
  br label %102

102:                                              ; preds = %93, %72
  %103 = load float, float* %10, align 4
  %104 = load float, float* %11, align 4
  %105 = fcmp ogt float %103, %104
  br i1 %105, label %106, label %110

106:                                              ; preds = %102
  %107 = getelementptr inbounds [300 x i32], [300 x i32]* %3, i64 0, i64 0
  %108 = load i32, i32* %107, align 16
  %109 = call i32 (i8*, ...) @printf(i8* getelementptr inbounds ([3 x i8], [3 x i8]* @.str, i64 0, i64 0), i32 %108)
  br label %110

110:                                              ; preds = %106, %102
  %111 = load float, float* %10, align 4
  %112 = load float, float* %11, align 4
  %113 = fcmp olt float %111, %112
  br i1 %113, label %114, label %121

114:                                              ; preds = %110
  %115 = load i32, i32* %6, align 4
  %116 = sub nsw i32 %115, 1
  %117 = sext i32 %116 to i64
  %118 = getelementptr inbounds [300 x i32], [300 x i32]* %3, i64 0, i64 %117
  %119 = load i32, i32* %118, align 4
  %120 = call i32 (i8*, ...) @printf(i8* getelementptr inbounds ([3 x i8], [3 x i8]* @.str, i64 0, i64 0), i32 %119)
  br label %121

121:                                              ; preds = %114, %110
  ret i32 0
}

; Function Attrs: argmemonly nounwind willreturn
declare void @llvm.memset.p0i8.i64(i8* nocapture writeonly, i8, i64, i1 immarg) #1

declare dso_local i32 @__isoc99_scanf(i8*, ...) #2

declare dso_local i32 @printf(i8*, ...) #2


!llvm.module.flags = !{!0}
!llvm.ident = !{!1}

!0 = !{i32 1, !"wchar_size", i32 4}
!1 = !{!"clang version 10.0.0-4ubuntu1 "}
